; Function Attrs: mustprogress nofree norecurse nosync nounwind willreturn memory(argmem: readwrite) uwtable
define internal range(i32 -27, 1) i32 @flex128_get_max_size(i16 noundef zeroext %0, ptr noundef captures(none) %1) #1 {
  %switch.tableidx = add i16 %0, -4
  %3 = icmp ult i16 %switch.tableidx, 12
  br i1 %3, label %switch.hole_check, label %._crit_edge

._crit_edge:                                      ; preds = %switch.hole_check, %2
  %.pre = load i64, ptr %1, align 8, !tbaa !35
  %4 = add i64 %.pre, 1
  br label %6

switch.hole_check:                                ; preds = %2
  %switch.shifted = lshr i16 3829, %switch.tableidx
  %switch.lobit = trunc i16 %switch.shifted to i1
  br i1 %switch.lobit, label %switch.lookup, label %._crit_edge

switch.lookup:                                    ; preds = %switch.hole_check
  %5 = zext nneg i16 %switch.tableidx to i64
  %switch.gep = getelementptr inbounds nuw [12 x i64], ptr @switch.table.flex128_get_max_size, i64 0, i64 %5
  %switch.load = load i64, ptr %switch.gep, align 8
  br label %6

6:                                                ; preds = %switch.lookup, %._crit_edge
  %7 = phi i64 [ %4, %._crit_edge ], [ %switch.load, %switch.lookup ]
  %.0 = phi i32 [ -27, %._crit_edge ], [ 0, %switch.lookup ]
  store i64 %7, ptr %1, align 8, !tbaa !35
  ret i32 %.0
}